target datalayout = "e-m:e-p270:32:32-p271:32:32-p272:64:64-i64:64-i128:128-f80:128-n8:16:32:64-S128"
target triple = "x86_64-pc-linux-gnu"

@.str.24 = private unnamed_addr constant [14 x i8] c" Host %012lx,\00", align 1
@.str.25 = private unnamed_addr constant [12 x i8] c" Source %u,\00", align 1
@.str.26 = private unnamed_addr constant [26 x i8] c"%s (ERF%s%s Interface %d)\00", align 1
@.str.27 = private unnamed_addr constant [31 x i8] c"Port %c (ERF%s%s Interface %d)\00", align 1

; Function Attrs: null_pointer_is_valid sspstrong uwtable
define internal void @erf_set_interface_descr(ptr noundef %0, i32 noundef %1, i64 noundef %2, i8 noundef zeroext %3, i8 noundef zeroext %4, ptr noundef %5) #0 {
  %7 = alloca ptr, align 8
  %8 = alloca i32, align 4
  %9 = alloca i64, align 8
  %10 = alloca i8, align 1
  %11 = alloca i8, align 1
  %12 = alloca ptr, align 8
  %13 = alloca [16 x i8], align 16
  %14 = alloca [24 x i8], align 16
  store ptr %0, ptr %7, align 8
  store i32 %1, ptr %8, align 4
  store i64 %2, ptr %9, align 8
  store i8 %3, ptr %10, align 1
  store i8 %4, ptr %11, align 1
  store ptr %5, ptr %12, align 8
  call void @llvm.lifetime.start.p0(i64 16, ptr %13) #16
  call void @llvm.lifetime.start.p0(i64 24, ptr %14) #16
  %15 = getelementptr [16 x i8], ptr %13, i64 0, i64 0
  store i8 0, ptr %15, align 16
  %16 = getelementptr [24 x i8], ptr %14, i64 0, i64 0
  store i8 0, ptr %16, align 16
  %17 = load i64, ptr %9, align 8
  %18 = icmp eq i64 %17, -1
  br i1 %18, label %19, label %20

19:                                               ; preds = %6
  store i64 0, ptr %9, align 8
  br label %20

20:                                               ; preds = %19, %6
  %21 = load i64, ptr %9, align 8
  %22 = icmp ugt i64 %21, 0
  br i1 %22, label %23, label %27

23:                                               ; preds = %20
  %24 = getelementptr inbounds [24 x i8], ptr %14, i64 0, i64 0
  %25 = load i64, ptr %9, align 8
  %26 = call i32 (ptr, i64, i32, i64, ptr, ...) @__snprintf_chk(ptr noundef %24, i64 noundef 24, i32 noundef 2, i64 noundef 24, ptr noundef @.str.24, i64 noundef %25)
  br label %27

27:                                               ; preds = %23, %20
  %28 = load i8, ptr %10, align 1
  %29 = zext i8 %28 to i32
  %30 = icmp sgt i32 %29, 0
  br i1 %30, label %31, label %36

31:                                               ; preds = %27
  %32 = getelementptr inbounds [16 x i8], ptr %13, i64 0, i64 0
  %33 = load i8, ptr %10, align 1
  %34 = zext i8 %33 to i32
  %35 = call i32 (ptr, i64, i32, i64, ptr, ...) @__snprintf_chk(ptr noundef %32, i64 noundef 16, i32 noundef 2, i64 noundef 16, ptr noundef @.str.25, i32 noundef %34)
  br label %36

36:                                               ; preds = %31, %27
  %37 = load ptr, ptr %12, align 8
  %38 = icmp ne ptr %37, null
  br i1 %38, label %39, label %48

39:                                               ; preds = %36
  %40 = load ptr, ptr %7, align 8
  %41 = load i32, ptr %8, align 4
  %42 = load ptr, ptr %12, align 8
  %43 = getelementptr inbounds [24 x i8], ptr %14, i64 0, i64 0
  %44 = getelementptr inbounds [16 x i8], ptr %13, i64 0, i64 0
  %45 = load i8, ptr %11, align 1
  %46 = zext i8 %45 to i32
  %47 = call i32 (ptr, i32, ptr, ...) @wtap_block_set_string_option_value_format(ptr noundef %40, i32 noundef %41, ptr noundef @.str.26, ptr noundef %42, ptr noundef %43, ptr noundef %44, i32 noundef %46)
  br label %59

48:                                               ; preds = %36
  %49 = load ptr, ptr %7, align 8
  %50 = load i32, ptr %8, align 4
  %51 = load i8, ptr %11, align 1
  %52 = zext i8 %51 to i32
  %53 = add i32 65, %52
  %54 = getelementptr inbounds [24 x i8], ptr %14, i64 0, i64 0
  %55 = getelementptr inbounds [16 x i8], ptr %13, i64 0, i64 0
  %56 = load i8, ptr %11, align 1
  %57 = zext i8 %56 to i32
  %58 = call i32 (ptr, i32, ptr, ...) @wtap_block_set_string_option_value_format(ptr noundef %49, i32 noundef %50, ptr noundef @.str.27, i32 noundef %53, ptr noundef %54, ptr noundef %55, i32 noundef %57)
  br label %59

59:                                               ; preds = %48, %39
  call void @llvm.lifetime.end.p0(i64 24, ptr %14) #16
  call void @llvm.lifetime.end.p0(i64 16, ptr %13) #16
  ret void
}