; Function Attrs: null_pointer_is_valid sspstrong uwtable
define internal fastcc void @erf_set_interface_descr(ptr noundef %0, i32 noundef range(i32 2, 4) %1, i64 noundef %2, i8 noundef zeroext %3, i8 noundef zeroext %4, ptr noundef %5) unnamed_addr #0 {
  %7 = alloca [16 x i8], align 16
  %8 = alloca [24 x i8], align 16
  call void @llvm.lifetime.start.p0(i64 16, ptr nonnull %7) #16
  call void @llvm.lifetime.start.p0(i64 24, ptr nonnull %8) #16
  store i8 0, ptr %7, align 16
  store i8 0, ptr %8, align 16
  %9 = add i64 %2, 1
  %.not = icmp ult i64 %9, 2
  br i1 %.not, label %12, label %10

10:                                               ; preds = %6
  %11 = call i32 (ptr, i64, i32, i64, ptr, ...) @__snprintf_chk(ptr noundef nonnull %8, i64 noundef 24, i32 noundef 2, i64 noundef 24, ptr noundef nonnull @.str.24, i64 noundef %2)
  br label %12

12:                                               ; preds = %10, %6
  %.not15 = icmp eq i8 %3, 0
  br i1 %.not15, label %16, label %13

13:                                               ; preds = %12
  %14 = zext i8 %3 to i32
  %15 = call i32 (ptr, i64, i32, i64, ptr, ...) @__snprintf_chk(ptr noundef nonnull %7, i64 noundef 16, i32 noundef 2, i64 noundef 16, ptr noundef nonnull @.str.25, i32 noundef %14)
  br label %16

16:                                               ; preds = %13, %12
  %.not16 = icmp eq ptr %5, null
  %17 = zext i8 %4 to i32
  br i1 %.not16, label %20, label %18

18:                                               ; preds = %16
  %19 = call i32 (ptr, i32, ptr, ...) @wtap_block_set_string_option_value_format(ptr noundef %0, i32 noundef %1, ptr noundef nonnull @.str.26, ptr noundef nonnull %5, ptr noundef nonnull %8, ptr noundef nonnull %7, i32 noundef %17)
  br label %23

20:                                               ; preds = %16
  %21 = add nuw nsw i32 %17, 65
  %22 = call i32 (ptr, i32, ptr, ...) @wtap_block_set_string_option_value_format(ptr noundef %0, i32 noundef %1, ptr noundef nonnull @.str.27, i32 noundef %21, ptr noundef nonnull %8, ptr noundef nonnull %7, i32 noundef %17)
  br label %23

23:                                               ; preds = %20, %18
  call void @llvm.lifetime.end.p0(i64 24, ptr nonnull %8) #16
  call void @llvm.lifetime.end.p0(i64 16, ptr nonnull %7) #16
  ret void
}